ccopy_reg
_reconstructor
p0
(cmushr_control.msg._XYHVPath
XYHVPath
p1
c__builtin__
object
p2
Ntp3
Rp4
(lp5
g0
(cstd_msgs.msg._Header
Header
p6
g2
Ntp7
Rp8
(lp9
I0
ag0
(crospy.rostime
Time
p10
g2
Ntp11
Rp12
(lp13
I1556306245
aI654530048
abaS''
p14
aba(lp15
g0
(cmushr_control.msg._XYHV
XYHV
p16
g2
Ntp17
Rp18
(lp19
F-7.668000221252441
aF-3.368000030517578
aF0.2590000033378601
acnumpy.core.multiarray
scalar
p20
(cnumpy
dtype
p21
(S'f8'
p22
I0
I1
tp23
Rp24
(I3
S'<'
p25
NNNI-1
I-1
I0
tp26
bS'\x00\x00\x00\x00\x00\x00\x00\x00'
p27
tp28
Rp29
abag0
(g16
g2
Ntp30
Rp31
(lp32
F-7.5870184898376465
aF-3.346543788909912
aF0.5382527112960815
ag20
(g24
S'\x1c\xc7q\x1c\xc7q\xcc?'
p33
tp34
Rp35
abag0
(g16
g2
Ntp36
Rp37
(lp38
F-7.647106647491455
aF-3.3824198246002197
aF0.3049749433994293
ag20
(g24
S'\x1c\xc7q\x1c\xc7q\xdc?'
p39
tp40
Rp41
abag0
(g16
g2
Ntp42
Rp43
(lp44
F-7.551721096038818
aF-3.3523929119110107
aF0.3049749433994293
ag20
(g24
S'UUUUUU\xe5?'
p45
tp46
Rp47
abag0
(g16
g2
Ntp48
Rp49
(lp50
F-7.45633602142334
aF-3.3223659992218018
aF0.3049749433994293
ag20
(g24
S'\x1c\xc7q\x1c\xc7q\xec?'
p51
tp52
Rp53
abag0
(g16
g2
Ntp54
Rp55
(lp56
F-7.360950469970703
aF-3.2923390865325928
aF0.3049749433994293
ag20
(g24
S'r\x1c\xc7q\x1c\xc7\xf1?'
p57
tp58
Rp59
abag0
(g16
g2
Ntp60
Rp61
(lp62
F-7.265564918518066
aF-3.262312173843384
aF0.3049749433994293
ag20
(g24
S'UUUUUU\xf5?'
p63
tp64
Rp65
abag0
(g16
g2
Ntp66
Rp67
(lp68
F-7.17017936706543
aF-3.232285261154175
aF0.3049749433994293
ag20
(g24
S'8\x8e\xe38\x8e\xe3\xf8?'
p69
tp70
Rp71
abag0
(g16
g2
Ntp72
Rp73
(lp74
F-7.074793815612793
aF-3.202258348464966
aF0.3049749433994293
ag20
(g24
S'\x1c\xc7q\x1c\xc7q\xfc?'
p75
tp76
Rp77
abag0
(g16
g2
Ntp78
Rp79
(lp80
F-6.9794087409973145
aF-3.172231435775757
aF0.3049749433994293
ag20
(g24
S'\x00\x00\x00\x00\x00\x00\x00@'
p81
tp82
Rp83
abag0
(g16
g2
Ntp84
Rp85
(lp86
F-6.884023189544678
aF-3.142204523086548
aF0.3049749433994293
ag20
(g24
S'\x00\x00\x00\x00\x00\x00\x00@'
p87
tp88
Rp89
abag0
(g16
g2
Ntp90
Rp91
(lp92
F-6.788637638092041
aF-3.112177610397339
aF0.3049749433994293
ag20
(g24
S'\x00\x00\x00\x00\x00\x00\x00@'
p93
tp94
Rp95
abag0
(g16
g2
Ntp96
Rp97
(lp98
F-6.693252086639404
aF-3.08215069770813
aF0.3049749433994293
ag20
(g24
S'\x00\x00\x00\x00\x00\x00\x00@'
p99
tp100
Rp101
abag0
(g16
g2
Ntp102
Rp103
(lp104
F-6.597867012023926
aF-3.052123785018921
aF0.3049749433994293
ag20
(g24
S'\x00\x00\x00\x00\x00\x00\x00@'
p105
tp106
Rp107
abag0
(g16
g2
Ntp108
Rp109
(lp110
F-6.502481460571289
aF-3.022096633911133
aF0.3049749433994293
ag20
(g24
S'\x00\x00\x00\x00\x00\x00\x00@'
p111
tp112
Rp113
abag0
(g16
g2
Ntp114
Rp115
(lp116
F-6.407095909118652
aF-2.992069721221924
aF0.3049749433994293
ag20
(g24
S'\x00\x00\x00\x00\x00\x00\x00@'
p117
tp118
Rp119
abag0
(g16
g2
Ntp120
Rp121
(lp122
F-6.311710357666016
aF-2.962042808532715
aF0.3049749433994293
ag20
(g24
S'\x00\x00\x00\x00\x00\x00\x00@'
p123
tp124
Rp125
abag0
(g16
g2
Ntp126
Rp127
(lp128
F-6.216324806213379
aF-2.932015895843506
aF0.3049749433994293
ag20
(g24
S'\x00\x00\x00\x00\x00\x00\x00@'
p129
tp130
Rp131
abag0
(g16
g2
Ntp132
Rp133
(lp134
F-6.1209397315979
aF-2.901988983154297
aF0.3049749433994293
ag20
(g24
S'\x00\x00\x00\x00\x00\x00\x00@'
p135
tp136
Rp137
abag0
(g16
g2
Ntp138
Rp139
(lp140
F-6.025554180145264
aF-2.871962070465088
aF0.3049749433994293
ag20
(g24
S'\x00\x00\x00\x00\x00\x00\x00@'
p141
tp142
Rp143
abag0
(g16
g2
Ntp144
Rp145
(lp146
F-5.930168628692627
aF-2.841935157775879
aF0.3049749433994293
ag20
(g24
S'\x00\x00\x00\x00\x00\x00\x00@'
p147
tp148
Rp149
abag0
(g16
g2
Ntp150
Rp151
(lp152
F-5.83478307723999
aF-2.81190824508667
aF0.3049749433994293
ag20
(g24
S'\x00\x00\x00\x00\x00\x00\x00@'
p153
tp154
Rp155
abag0
(g16
g2
Ntp156
Rp157
(lp158
F-5.7393975257873535
aF-2.781881332397461
aF0.3049749433994293
ag20
(g24
S'\x00\x00\x00\x00\x00\x00\x00@'
p159
tp160
Rp161
abag0
(g16
g2
Ntp162
Rp163
(lp164
F-5.644012451171875
aF-2.751854419708252
aF0.3049749433994293
ag20
(g24
S'\x00\x00\x00\x00\x00\x00\x00@'
p165
tp166
Rp167
abag0
(g16
g2
Ntp168
Rp169
(lp170
F-5.548626899719238
aF-2.721827507019043
aF0.3049749433994293
ag20
(g24
S'\x00\x00\x00\x00\x00\x00\x00@'
p171
tp172
Rp173
abag0
(g16
g2
Ntp174
Rp175
(lp176
F-5.453241348266602
aF-2.691800594329834
aF0.3049749433994293
ag20
(g24
S'\x00\x00\x00\x00\x00\x00\x00@'
p177
tp178
Rp179
abag0
(g16
g2
Ntp180
Rp181
(lp182
F-5.357855796813965
aF-2.661773681640625
aF0.3049749433994293
ag20
(g24
S'\x00\x00\x00\x00\x00\x00\x00@'
p183
tp184
Rp185
abag0
(g16
g2
Ntp186
Rp187
(lp188
F-5.262470722198486
aF-2.631746768951416
aF0.3049749433994293
ag20
(g24
S'\x00\x00\x00\x00\x00\x00\x00@'
p189
tp190
Rp191
abag0
(g16
g2
Ntp192
Rp193
(lp194
F-5.16708517074585
aF-2.601719856262207
aF0.3049749433994293
ag20
(g24
S'\x00\x00\x00\x00\x00\x00\x00@'
p195
tp196
Rp197
abag0
(g16
g2
Ntp198
Rp199
(lp200
F-5.071699619293213
aF-2.571692943572998
aF0.3049749433994293
ag20
(g24
S'\x00\x00\x00\x00\x00\x00\x00@'
p201
tp202
Rp203
abag0
(g16
g2
Ntp204
Rp205
(lp206
F-4.976314067840576
aF-2.541666030883789
aF0.3049749433994293
ag20
(g24
S'\x00\x00\x00\x00\x00\x00\x00@'
p207
tp208
Rp209
abag0
(g16
g2
Ntp210
Rp211
(lp212
F-4.8809285163879395
aF-2.511638879776001
aF0.3049749433994293
ag20
(g24
S'\x00\x00\x00\x00\x00\x00\x00@'
p213
tp214
Rp215
abag0
(g16
g2
Ntp216
Rp217
(lp218
F-4.785543441772461
aF-2.481611967086792
aF0.3049749433994293
ag20
(g24
S'\x00\x00\x00\x00\x00\x00\x00@'
p219
tp220
Rp221
abag0
(g16
g2
Ntp222
Rp223
(lp224
F-4.690157890319824
aF-2.451585054397583
aF0.3049749433994293
ag20
(g24
S'\x00\x00\x00\x00\x00\x00\x00@'
p225
tp226
Rp227
abag0
(g16
g2
Ntp228
Rp229
(lp230
F-4.5947723388671875
aF-2.421558141708374
aF0.3049749433994293
ag20
(g24
S'\x00\x00\x00\x00\x00\x00\x00@'
p231
tp232
Rp233
abag0
(g16
g2
Ntp234
Rp235
(lp236
F-4.499386787414551
aF-2.391531229019165
aF0.3049749433994293
ag20
(g24
S'\x00\x00\x00\x00\x00\x00\x00@'
p237
tp238
Rp239
abag0
(g16
g2
Ntp240
Rp241
(lp242
F-4.404001712799072
aF-2.361504316329956
aF0.3049749433994293
ag20
(g24
S'\x00\x00\x00\x00\x00\x00\x00@'
p243
tp244
Rp245
abag0
(g16
g2
Ntp246
Rp247
(lp248
F-4.3086161613464355
aF-2.331477403640747
aF0.3049749433994293
ag20
(g24
S'\x00\x00\x00\x00\x00\x00\x00@'
p249
tp250
Rp251
abag0
(g16
g2
Ntp252
Rp253
(lp254
F-4.213230609893799
aF-2.301450490951538
aF0.3049749433994293
ag20
(g24
S'\x00\x00\x00\x00\x00\x00\x00@'
p255
tp256
Rp257
abag0
(g16
g2
Ntp258
Rp259
(lp260
F-4.117845058441162
aF-2.271423578262329
aF0.3049749433994293
ag20
(g24
S'\x00\x00\x00\x00\x00\x00\x00@'
p261
tp262
Rp263
abag0
(g16
g2
Ntp264
Rp265
(lp266
F-4.022459506988525
aF-2.24139666557312
aF0.3049749433994293
ag20
(g24
S'\x00\x00\x00\x00\x00\x00\x00@'
p267
tp268
Rp269
abag0
(g16
g2
Ntp270
Rp271
(lp272
F-3.9270741939544678
aF-2.211369752883911
aF0.3049749433994293
ag20
(g24
S'\x00\x00\x00\x00\x00\x00\x00@'
p273
tp274
Rp275
abag0
(g16
g2
Ntp276
Rp277
(lp278
F-3.83168888092041
aF-2.181342840194702
aF0.3049749433994293
ag20
(g24
S'\x00\x00\x00\x00\x00\x00\x00@'
p279
tp280
Rp281
abag0
(g16
g2
Ntp282
Rp283
(lp284
F-3.7363033294677734
aF-2.151315927505493
aF0.3049749433994293
ag20
(g24
S'\x00\x00\x00\x00\x00\x00\x00@'
p285
tp286
Rp287
abag0
(g16
g2
Ntp288
Rp289
(lp290
F-3.640918016433716
aF-2.121289014816284
aF0.3049749433994293
ag20
(g24
S'\x00\x00\x00\x00\x00\x00\x00@'
p291
tp292
Rp293
abag0
(g16
g2
Ntp294
Rp295
(lp296
F-3.545532464981079
aF-2.091262102127075
aF0.3049749433994293
ag20
(g24
S'\x00\x00\x00\x00\x00\x00\x00@'
p297
tp298
Rp299
abag0
(g16
g2
Ntp300
Rp301
(lp302
F-3.4501469135284424
aF-2.061235189437866
aF0.3049749433994293
ag20
(g24
S'\x00\x00\x00\x00\x00\x00\x00@'
p303
tp304
Rp305
abag0
(g16
g2
Ntp306
Rp307
(lp308
F-3.3547616004943848
aF-2.0312082767486572
aF0.3049749433994293
ag20
(g24
S'\x00\x00\x00\x00\x00\x00\x00@'
p309
tp310
Rp311
abag0
(g16
g2
Ntp312
Rp313
(lp314
F-3.259376049041748
aF-2.001181125640869
aF0.3049749433994293
ag20
(g24
S'\x00\x00\x00\x00\x00\x00\x00@'
p315
tp316
Rp317
abag0
(g16
g2
Ntp318
Rp319
(lp320
F-3.1639907360076904
aF-1.9711543321609497
aF0.3049749433994293
ag20
(g24
S'\x00\x00\x00\x00\x00\x00\x00@'
p321
tp322
Rp323
abag0
(g16
g2
Ntp324
Rp325
(lp326
F-3.0686051845550537
aF-1.9411274194717407
aF0.3049749433994293
ag20
(g24
S'\x00\x00\x00\x00\x00\x00\x00@'
p327
tp328
Rp329
abag0
(g16
g2
Ntp330
Rp331
(lp332
F-2.973219871520996
aF-1.9111005067825317
aF0.3049749433994293
ag20
(g24
S'\x00\x00\x00\x00\x00\x00\x00@'
p333
tp334
Rp335
abag0
(g16
g2
Ntp336
Rp337
(lp338
F-2.8778343200683594
aF-1.8810734748840332
aF0.3049749433994293
ag20
(g24
S'\x00\x00\x00\x00\x00\x00\x00@'
p339
tp340
Rp341
abag0
(g16
g2
Ntp342
Rp343
(lp344
F-2.7824487686157227
aF-1.8510465621948242
aF0.3049749433994293
ag20
(g24
S'\x00\x00\x00\x00\x00\x00\x00@'
p345
tp346
Rp347
abag0
(g16
g2
Ntp348
Rp349
(lp350
F-2.687063455581665
aF-1.8210196495056152
aF0.3049749433994293
ag20
(g24
S'\x00\x00\x00\x00\x00\x00\x00@'
p351
tp352
Rp353
abag0
(g16
g2
Ntp354
Rp355
(lp356
F-2.5916779041290283
aF-1.7909927368164062
aF0.3049749433994293
ag20
(g24
S'\x00\x00\x00\x00\x00\x00\x00@'
p357
tp358
Rp359
abag0
(g16
g2
Ntp360
Rp361
(lp362
F-2.4962925910949707
aF-1.7609658241271973
aF0.3049749433994293
ag20
(g24
S'\x00\x00\x00\x00\x00\x00\x00@'
p363
tp364
Rp365
abag0
(g16
g2
Ntp366
Rp367
(lp368
F-2.400907039642334
aF-1.7309389114379883
aF0.3049749433994293
ag20
(g24
S'\x00\x00\x00\x00\x00\x00\x00@'
p369
tp370
Rp371
abag0
(g16
g2
Ntp372
Rp373
(lp374
F-2.3055217266082764
aF-1.7009119987487793
aF0.3049749433994293
ag20
(g24
S'\x00\x00\x00\x00\x00\x00\x00@'
p375
tp376
Rp377
abag0
(g16
g2
Ntp378
Rp379
(lp380
F-2.2101361751556396
aF-1.6708850860595703
aF0.3049749433994293
ag20
(g24
S'\x00\x00\x00\x00\x00\x00\x00@'
p381
tp382
Rp383
abag0
(g16
g2
Ntp384
Rp385
(lp386
F-2.114750623703003
aF-1.6408580541610718
aF0.3049749433994293
ag20
(g24
S'\x00\x00\x00\x00\x00\x00\x00@'
p387
tp388
Rp389
abag0
(g16
g2
Ntp390
Rp391
(lp392
F-2.0193653106689453
aF-1.6108311414718628
aF0.3049749433994293
ag20
(g24
S'\x00\x00\x00\x00\x00\x00\x00@'
p393
tp394
Rp395
abag0
(g16
g2
Ntp396
Rp397
(lp398
F-1.9239798784255981
aF-1.5808042287826538
aF0.3049749433994293
ag20
(g24
S'\x00\x00\x00\x00\x00\x00\x00@'
p399
tp400
Rp401
abag0
(g16
g2
Ntp402
Rp403
(lp404
F-1.828594446182251
aF-1.5507773160934448
aF0.3049749433994293
ag20
(g24
S'\x00\x00\x00\x00\x00\x00\x00@'
p405
tp406
Rp407
abag0
(g16
g2
Ntp408
Rp409
(lp410
F-1.8285924196243286
aF-1.550776720046997
aF0.3049749433994293
ag20
(g24
S'\x00\x00\x00\x00\x00\x00\x00@'
p411
tp412
Rp413
abag0
(g16
g2
Ntp414
Rp415
(lp416
F-1.7486824989318848
aF-1.5256214141845703
aF0.025722259655594826
ag20
(g24
S'\x00\x00\x00\x00\x00\x00\x00@'
p417
tp418
Rp419
abag0
(g16
g2
Ntp420
Rp421
(lp422
F-1.7127776145935059
aF-1.5246976613998413
aF-0.09399999678134918
ag20
(g24
S'\x00\x00\x00\x00\x00\x00\x00@'
p423
tp424
Rp425
abag0
(g16
g2
Ntp426
Rp427
(lp428
F-1.718000054359436
aF-1.5199999809265137
aF-0.09399999678134918
ag20
(g24
S'\x00\x00\x00\x00\x00\x00\x00@'
p429
tp430
Rp431
abag0
(g16
g2
Ntp432
Rp433
(lp434
F-1.6345940828323364
aF-1.5278632640838623
aF0.18525268137454987
ag20
(g24
S'\x00\x00\x00\x00\x00\x00\x00@'
p435
tp436
Rp437
abag0
(g16
g2
Ntp438
Rp439
(lp440
F-1.5522516965866089
aF-1.5124322175979614
aF0.4645053744316101
ag20
(g24
S'\x00\x00\x00\x00\x00\x00\x00@'
p441
tp442
Rp443
abag0
(g16
g2
Ntp444
Rp445
(lp446
F-1.477352499961853
aF-1.4749022722244263
aF0.7437580227851868
ag20
(g24
S'\x00\x00\x00\x00\x00\x00\x00@'
p447
tp448
Rp449
abag0
(g16
g2
Ntp450
Rp451
(lp452
F-1.4156994819641113
aF-1.4181811809539795
aF1.0230107307434082
ag20
(g24
S'\x00\x00\x00\x00\x00\x00\x00@'
p453
tp454
Rp455
abag0
(g16
g2
Ntp456
Rp457
(lp458
F-1.3720691204071045
aF-1.346663475036621
aF1.3022633790969849
ag20
(g24
S'\x00\x00\x00\x00\x00\x00\x00@'
p459
tp460
Rp461
abag0
(g16
g2
Ntp462
Rp463
(lp464
F-1.3498419523239136
aF-1.265890121459961
aF1.5815160274505615
ag20
(g24
S'\x00\x00\x00\x00\x00\x00\x00@'
p465
tp466
Rp467
abag0
(g16
g2
Ntp468
Rp469
(lp470
F-1.3503386974334717
aF-1.2195625305175781
aF1.735949993133545
ag20
(g24
S'\x00\x00\x00\x00\x00\x00\x00@'
p471
tp472
Rp473
abag0
(g16
g2
Ntp474
Rp475
(lp476
F-1.366779088973999
aF-1.1209232807159424
aF1.735949993133545
ag20
(g24
S'\x00\x00\x00\x00\x00\x00\x00@'
p477
tp478
Rp479
abag0
(g16
g2
Ntp480
Rp481
(lp482
F-1.3832194805145264
aF-1.022283911705017
aF1.735949993133545
ag20
(g24
S'\x00\x00\x00\x00\x00\x00\x00@'
p483
tp484
Rp485
abag0
(g16
g2
Ntp486
Rp487
(lp488
F-1.3996598720550537
aF-0.9236446619033813
aF1.735949993133545
ag20
(g24
S'\x00\x00\x00\x00\x00\x00\x00@'
p489
tp490
Rp491
abag0
(g16
g2
Ntp492
Rp493
(lp494
F-1.416100263595581
aF-0.8250053524971008
aF1.735949993133545
ag20
(g24
S'\x00\x00\x00\x00\x00\x00\x00@'
p495
tp496
Rp497
abag0
(g16
g2
Ntp498
Rp499
(lp500
F-1.4325406551361084
aF-0.7263660430908203
aF1.735949993133545
ag20
(g24
S'\x00\x00\x00\x00\x00\x00\x00@'
p501
tp502
Rp503
abag0
(g16
g2
Ntp504
Rp505
(lp506
F-1.4489810466766357
aF-0.6277267336845398
aF1.735949993133545
ag20
(g24
S'\x00\x00\x00\x00\x00\x00\x00@'
p507
tp508
Rp509
abag0
(g16
g2
Ntp510
Rp511
(lp512
F-1.465421438217163
aF-0.5290874242782593
aF1.735949993133545
ag20
(g24
S'\x00\x00\x00\x00\x00\x00\x00@'
p513
tp514
Rp515
abag0
(g16
g2
Ntp516
Rp517
(lp518
F-1.4818618297576904
aF-0.43044811487197876
aF1.735949993133545
ag20
(g24
S'\x00\x00\x00\x00\x00\x00\x00@'
p519
tp520
Rp521
abag0
(g16
g2
Ntp522
Rp523
(lp524
F-1.4983022212982178
aF-0.33180880546569824
aF1.735949993133545
ag20
(g24
S'\x00\x00\x00\x00\x00\x00\x00@'
p525
tp526
Rp527
abag0
(g16
g2
Ntp528
Rp529
(lp530
F-1.5147426128387451
aF-0.23316948115825653
aF1.735949993133545
ag20
(g24
S'\x00\x00\x00\x00\x00\x00\x00@'
p531
tp532
Rp533
abag0
(g16
g2
Ntp534
Rp535
(lp536
F-1.531182885169983
aF-0.134530171751976
aF1.735949993133545
ag20
(g24
S'\x00\x00\x00\x00\x00\x00\x00@'
p537
tp538
Rp539
abag0
(g16
g2
Ntp540
Rp541
(lp542
F-1.5476232767105103
aF-0.035890866070985794
aF1.735949993133545
ag20
(g24
S'\x00\x00\x00\x00\x00\x00\x00@'
p543
tp544
Rp545
abag0
(g16
g2
Ntp546
Rp547
(lp548
F-1.5640636682510376
aF0.06274844706058502
aF1.735949993133545
ag20
(g24
S'\x00\x00\x00\x00\x00\x00\x00@'
p549
tp550
Rp551
abag0
(g16
g2
Ntp552
Rp553
(lp554
F-1.580504059791565
aF0.16138775646686554
aF1.735949993133545
ag20
(g24
S'\x00\x00\x00\x00\x00\x00\x00@'
p555
tp556
Rp557
abag0
(g16
g2
Ntp558
Rp559
(lp560
F-1.5969444513320923
aF0.26002708077430725
aF1.735949993133545
ag20
(g24
S'\x00\x00\x00\x00\x00\x00\x00@'
p561
tp562
Rp563
abag0
(g16
g2
Ntp564
Rp565
(lp566
F-1.6133848428726196
aF0.35866639018058777
aF1.735949993133545
ag20
(g24
S'\x00\x00\x00\x00\x00\x00\x00@'
p567
tp568
Rp569
abag0
(g16
g2
Ntp570
Rp571
(lp572
F-1.629825234413147
aF0.4573056995868683
aF1.735949993133545
ag20
(g24
S'\x00\x00\x00\x00\x00\x00\x00@'
p573
tp574
Rp575
abag0
(g16
g2
Ntp576
Rp577
(lp578
F-1.6462656259536743
aF0.5559449791908264
aF1.735949993133545
ag20
(g24
S'\x00\x00\x00\x00\x00\x00\x00@'
p579
tp580
Rp581
abag0
(g16
g2
Ntp582
Rp583
(lp584
F-1.6627060174942017
aF0.6545842885971069
aF1.735949993133545
ag20
(g24
S'\x00\x00\x00\x00\x00\x00\x00@'
p585
tp586
Rp587
abag0
(g16
g2
Ntp588
Rp589
(lp590
F-1.679146409034729
aF0.7532235980033875
aF1.735949993133545
ag20
(g24
S'\x00\x00\x00\x00\x00\x00\x00@'
p591
tp592
Rp593
abag0
(g16
g2
Ntp594
Rp595
(lp596
F-1.6955868005752563
aF0.851862907409668
aF1.735949993133545
ag20
(g24
S'\x00\x00\x00\x00\x00\x00\x00@'
p597
tp598
Rp599
abag0
(g16
g2
Ntp600
Rp601
(lp602
F-1.7120271921157837
aF0.9505022168159485
aF1.735949993133545
ag20
(g24
S'\x00\x00\x00\x00\x00\x00\x00@'
p603
tp604
Rp605
abag0
(g16
g2
Ntp606
Rp607
(lp608
F-1.728467583656311
aF1.049141526222229
aF1.735949993133545
ag20
(g24
S'\xa5O\xfa\xa4O\xfa\xfc?'
p609
tp610
Rp611
abag0
(g16
g2
Ntp612
Rp613
(lp614
F-1.7449079751968384
aF1.1477808952331543
aF1.735949993133545
ag20
(g24
S'J\x9f\xf4I\x9f\xf4\xf9?'
p615
tp616
Rp617
abag0
(g16
g2
Ntp618
Rp619
(lp620
F-1.7613483667373657
aF1.24642014503479
aF1.735949993133545
ag20
(g24
S'\xef\xee\xee\xee\xee\xee\xf6?'
p621
tp622
Rp623
abag0
(g16
g2
Ntp624
Rp625
(lp626
F-1.7769323587417603
aF1.339921236038208
aF1.735949993133545
ag20
(g24
S'\x94>\xe9\x93>\xe9\xf3?'
p627
tp628
Rp629
abag0
(g16
g2
Ntp630
Rp631
(lp632
F-1.7907054424285889
aF1.4225571155548096
aF1.4566973447799683
ag20
(g24
S'9\x8e\xe38\x8e\xe3\xf0?'
p633
tp634
Rp635
abag0
(g16
g2
Ntp636
Rp637
(lp638
F-1.7811675071716309
aF1.5057882070541382
aF1.177444577217102
ag20
(g24
S'\xbc\xbb\xbb\xbb\xbb\xbb\xeb?'
p639
tp640
Rp641
abag0
(g16
g2
Ntp642
Rp643
(lp644
F-1.7490572929382324
aF1.5831660032272339
aF0.8981919288635254
ag20
(g24
S'\x06[\xb0\x05[\xb0\xe5?'
p645
tp646
Rp647
abag0
(g16
g2
Ntp648
Rp649
(lp650
F-1.6968629360198975
aF1.6486955881118774
aF0.6189392805099487
ag20
(g24
S'\xa0\xf4I\x9f\xf4I\xdf?'
p651
tp652
Rp653
abag0
(g16
g2
Ntp654
Rp655
(lp656
F-1.6609585285186768
aF1.6742706298828125
aF0.47200000286102295
ag20
(g24
S'333333\xd3?'
p657
tp658
Rp659
abaab.
